target datalayout = "e-m:e-p270:32:32-p271:32:32-p272:64:64-i64:64-i128:128-f80:128-n8:16:32:64-S128"
target triple = "x86_64-pc-linux-gnu"

%struct.ident_t = type { i32, i32, i32, i32, ptr }
%"class.ncnn::GELU" = type <{ %"class.ncnn::Layer", i32, [4 x i8] }>
%"class.ncnn::Layer" = type { ptr, i8, i8, i8, i8, i8, i8, i8, i8, i8, i8, i8, i8, i8, i8, i8, i8, i8, i8, i8, i8, i32, ptr, i32, %"class.std::__cxx11::basic_string", %"class.std::__cxx11::basic_string", %"class.std::vector", %"class.std::vector", %"class.std::vector.3", %"class.std::vector.3" }
%"class.std::__cxx11::basic_string" = type { %"struct.std::__cxx11::basic_string<char>::_Alloc_hider", i64, %union.anon }
%"struct.std::__cxx11::basic_string<char>::_Alloc_hider" = type { ptr }
%union.anon = type { i64, [8 x i8] }
%"class.std::vector" = type { %"struct.std::_Vector_base" }
%"struct.std::_Vector_base" = type { %"struct.std::_Vector_base<int, std::allocator<int>>::_Vector_impl" }
%"struct.std::_Vector_base<int, std::allocator<int>>::_Vector_impl" = type { %"struct.std::_Vector_base<int, std::allocator<int>>::_Vector_impl_data" }
%"struct.std::_Vector_base<int, std::allocator<int>>::_Vector_impl_data" = type { ptr, ptr, ptr }
%"class.std::vector.3" = type { %"struct.std::_Vector_base.4" }
%"struct.std::_Vector_base.4" = type { %"struct.std::_Vector_base<ncnn::Mat, std::allocator<ncnn::Mat>>::_Vector_impl" }
%"struct.std::_Vector_base<ncnn::Mat, std::allocator<ncnn::Mat>>::_Vector_impl" = type { %"struct.std::_Vector_base<ncnn::Mat, std::allocator<ncnn::Mat>>::_Vector_impl_data" }
%"struct.std::_Vector_base<ncnn::Mat, std::allocator<ncnn::Mat>>::_Vector_impl_data" = type { ptr, ptr, ptr }
%"class.ncnn::Mat" = type { ptr, ptr, i64, i32, ptr, i32, i32, i32, i32, i32, i64 }
%"class.ncnn::Option" = type { i8, i32, ptr, ptr, i32, i8, i8, i8, i8, i8, i8, i8, i8, i8, i8, i8, i8, i8, i8, i8, i8, i8, i8, i8, i8, i32, i8, i8, i8, i8, i8, i8, i8, i8, i8, i8, i8, i8 }

@2 = private unnamed_addr constant %struct.ident_t { i32 0, i32 2, i32 0, i32 22, ptr @0 }, align 8

; Function Attrs: mustprogress uwtable
define hidden noundef i32 @_ZNK4ncnn8GELU_x8615forward_inplaceERNS_3MatERKNS_6OptionE(ptr noundef nonnull align 8 dereferenceable(212) %0, ptr noundef nonnull align 8 dereferenceable(72) %1, ptr noundef nonnull align 8 dereferenceable(64) %2) unnamed_addr #4 align 2 {
  %4 = alloca i32, align 4
  %5 = alloca ptr, align 8
  %6 = alloca ptr, align 8
  %7 = alloca ptr, align 8
  %8 = alloca i32, align 4
  %9 = alloca i32, align 4
  %10 = alloca i32, align 4
  %11 = alloca i32, align 4
  %12 = alloca i32, align 4
  %13 = alloca i32, align 4
  %14 = call i32 @__kmpc_global_thread_num(ptr @2)
  store ptr %0, ptr %5, align 8, !tbaa !4
  store ptr %1, ptr %6, align 8, !tbaa !31
  store ptr %2, ptr %7, align 8, !tbaa !9
  %15 = load ptr, ptr %5, align 8
  %16 = getelementptr inbounds nuw %"class.ncnn::GELU", ptr %15, i32 0, i32 1
  %17 = load i32, ptr %16, align 8, !tbaa !11
  %18 = icmp ne i32 %17, 0
  br i1 %18, label %23, label %19

19:                                               ; preds = %3
  %20 = load ptr, ptr %6, align 8, !tbaa !31
  %21 = load ptr, ptr %7, align 8, !tbaa !9
  %22 = call noundef i32 @_ZNK4ncnn4GELU15forward_inplaceERNS_3MatERKNS_6OptionE(ptr noundef nonnull align 8 dereferenceable(212) %15, ptr noundef nonnull align 8 dereferenceable(72) %20, ptr noundef nonnull align 8 dereferenceable(64) %21)
  store i32 %22, ptr %4, align 4
  br label %50

23:                                               ; preds = %3
  call void @llvm.lifetime.start.p0(i64 4, ptr %8) #7
  %24 = load ptr, ptr %6, align 8, !tbaa !31
  %25 = getelementptr inbounds nuw %"class.ncnn::Mat", ptr %24, i32 0, i32 6
  %26 = load i32, ptr %25, align 4, !tbaa !32
  store i32 %26, ptr %8, align 4, !tbaa !35
  call void @llvm.lifetime.start.p0(i64 4, ptr %9) #7
  %27 = load ptr, ptr %6, align 8, !tbaa !31
  %28 = getelementptr inbounds nuw %"class.ncnn::Mat", ptr %27, i32 0, i32 7
  %29 = load i32, ptr %28, align 8, !tbaa !36
  store i32 %29, ptr %9, align 4, !tbaa !35
  call void @llvm.lifetime.start.p0(i64 4, ptr %10) #7
  %30 = load ptr, ptr %6, align 8, !tbaa !31
  %31 = getelementptr inbounds nuw %"class.ncnn::Mat", ptr %30, i32 0, i32 8
  %32 = load i32, ptr %31, align 4, !tbaa !37
  store i32 %32, ptr %10, align 4, !tbaa !35
  call void @llvm.lifetime.start.p0(i64 4, ptr %11) #7
  %33 = load ptr, ptr %6, align 8, !tbaa !31
  %34 = getelementptr inbounds nuw %"class.ncnn::Mat", ptr %33, i32 0, i32 3
  %35 = load i32, ptr %34, align 8, !tbaa !38
  store i32 %35, ptr %11, align 4, !tbaa !35
  call void @llvm.lifetime.start.p0(i64 4, ptr %12) #7
  %36 = load ptr, ptr %6, align 8, !tbaa !31
  %37 = getelementptr inbounds nuw %"class.ncnn::Mat", ptr %36, i32 0, i32 9
  %38 = load i32, ptr %37, align 8, !tbaa !39
  store i32 %38, ptr %12, align 4, !tbaa !35
  call void @llvm.lifetime.start.p0(i64 4, ptr %13) #7
  %39 = load i32, ptr %8, align 4, !tbaa !35
  %40 = load i32, ptr %9, align 4, !tbaa !35
  %41 = mul nsw i32 %39, %40
  %42 = load i32, ptr %10, align 4, !tbaa !35
  %43 = mul nsw i32 %41, %42
  %44 = load i32, ptr %11, align 4, !tbaa !35
  %45 = mul nsw i32 %43, %44
  store i32 %45, ptr %13, align 4, !tbaa !35
  %46 = load ptr, ptr %7, align 8, !tbaa !9
  %47 = getelementptr inbounds nuw %"class.ncnn::Option", ptr %46, i32 0, i32 1
  %48 = load i32, ptr %47, align 4, !tbaa !40
  call void @__kmpc_push_num_threads(ptr @2, i32 %14, i32 %48)
  %49 = load ptr, ptr %6, align 8, !tbaa !31
  call void (ptr, i32, ptr, ...) @__kmpc_fork_call(ptr @2, i32 3, ptr @_ZNK4ncnn8GELU_x8615forward_inplaceERNS_3MatERKNS_6OptionE.omp_outlined, ptr %12, ptr %49, ptr %13)
  store i32 0, ptr %4, align 4
  call void @llvm.lifetime.end.p0(i64 4, ptr %13) #7
  call void @llvm.lifetime.end.p0(i64 4, ptr %12) #7
  call void @llvm.lifetime.end.p0(i64 4, ptr %11) #7
  call void @llvm.lifetime.end.p0(i64 4, ptr %10) #7
  call void @llvm.lifetime.end.p0(i64 4, ptr %9) #7
  call void @llvm.lifetime.end.p0(i64 4, ptr %8) #7
  br label %50

50:                                               ; preds = %23, %19
  %51 = load i32, ptr %4, align 4
  ret i32 %51
}